; Function Attrs: mustprogress uwtable
define noundef zeroext i1 @_ZNK8QuantLib7Austria14SettlementImpl13isBusinessDayERKNS_4DateE(ptr noundef nonnull align 8 dereferenceable(104) %this, ptr noundef nonnull align 8 dereferenceable(8) %date) unnamed_addr #0 align 2 {
entry:
  %0 = load i64, ptr %date, align 8, !tbaa !30
  %rem.i = srem i64 %0, 7
  %conv.i = trunc nsw i64 %rem.i to i32
  %cmp.i = icmp eq i64 %rem.i, 0
  %cond.i = select i1 %cmp.i, i32 7, i32 %conv.i
  %call.i.i = tail call noundef i32 @_ZNK8QuantLib4Date4yearEv(ptr noundef nonnull align 8 dereferenceable(8) %date)
  %call2.i.i = tail call noundef i64 @_ZN8QuantLib4Date10yearOffsetEi(i32 noundef %call.i.i)
  %sub.i.i = sub nsw i64 %0, %call2.i.i
  %conv.i.i = trunc i64 %sub.i.i to i32
  %call2.i = tail call noundef i32 @_ZNK8QuantLib4Date5monthEv(ptr noundef nonnull align 8 dereferenceable(8) %date)
  %call3.i = tail call noundef i32 @_ZNK8QuantLib4Date4yearEv(ptr noundef nonnull align 8 dereferenceable(8) %date)
  %call4.i = tail call noundef zeroext i1 @_ZN8QuantLib4Date6isLeapEi(i32 noundef %call3.i)
  %call5.i = tail call noundef i32 @_ZN8QuantLib4Date11monthOffsetENS_5MonthEb(i32 noundef %call2.i, i1 noundef zeroext %call4.i)
  %sub.i = sub nsw i32 %conv.i.i, %call5.i
  %1 = load i64, ptr %date, align 8, !tbaa !30
  %call.i = tail call noundef i32 @_ZNK8QuantLib4Date4yearEv(ptr noundef nonnull align 8 dereferenceable(8) %date)
  %call2.i53 = tail call noundef i64 @_ZN8QuantLib4Date10yearOffsetEi(i32 noundef %call.i)
  %call4 = tail call noundef i32 @_ZNK8QuantLib4Date5monthEv(ptr noundef nonnull align 8 dereferenceable(8) %date)
  %call5 = tail call noundef i32 @_ZNK8QuantLib4Date4yearEv(ptr noundef nonnull align 8 dereferenceable(8) %date)
  %call6 = tail call noundef i32 @_ZN8QuantLib8Calendar11WesternImpl12easterMondayEi(i32 noundef %call5)
  %call7 = tail call noundef zeroext i1 @_ZNK8QuantLib8Calendar11WesternImpl9isWeekendENS_7WeekdayE(ptr noundef nonnull align 8 dereferenceable(104) %this, i32 noundef %cond.i)
  br i1 %call7, label %cleanup, label %lor.lhs.false

lor.lhs.false:                                    ; preds = %entry
  %sub.i54 = sub nsw i64 %1, %call2.i53
  %conv.i55 = trunc i64 %sub.i54 to i32
  %cmp = icmp eq i32 %sub.i, 1
  %cmp8 = icmp eq i32 %call4, 1
  %cmp10 = icmp eq i32 %sub.i, 6
  %or.cond56 = or i1 %cmp, %cmp10
  %or.cond44 = and i1 %or.cond56, %cmp8
  %cmp14 = icmp eq i32 %call6, %conv.i55
  %or.cond45 = or i1 %or.cond44, %cmp14
  %add = add nsw i32 %call6, 38
  %cmp16 = icmp eq i32 %add, %conv.i55
  %or.cond46 = select i1 %or.cond45, i1 true, i1 %cmp16
  %add18 = add nsw i32 %call6, 49
  %cmp19 = icmp eq i32 %add18, %conv.i55
  %or.cond47 = select i1 %or.cond46, i1 true, i1 %cmp19
  %add21 = add nsw i32 %call6, 59
  %cmp22 = icmp eq i32 %add21, %conv.i55
  %or.cond48 = select i1 %or.cond47, i1 true, i1 %cmp22
  %cmp26 = icmp eq i32 %call4, 5
  %or.cond2 = and i1 %cmp, %cmp26
  %or.cond49 = or i1 %or.cond2, %or.cond48
  br i1 %or.cond49, label %cleanup, label %lor.lhs.false27

lor.lhs.false27:                                  ; preds = %lor.lhs.false
  %cmp28 = icmp eq i32 %sub.i, 15
  %cmp30 = icmp eq i32 %call4, 8
  %or.cond3 = and i1 %cmp28, %cmp30
  br i1 %or.cond3, label %cleanup, label %lor.lhs.false31

lor.lhs.false31:                                  ; preds = %lor.lhs.false27
  %cmp32 = icmp eq i32 %sub.i, 26
  %cmp34 = icmp eq i32 %call4, 10
  %cmp36 = icmp sgt i32 %call5, 1966
  %2 = and i1 %cmp34, %cmp36
  %or.cond5 = and i1 %cmp32, %2
  br i1 %or.cond5, label %cleanup, label %lor.lhs.false37

lor.lhs.false37:                                  ; preds = %lor.lhs.false31
  %cmp38 = icmp eq i32 %sub.i, 12
  %cmp40 = icmp eq i32 %call4, 11
  %3 = add i32 %call5, -1919
  %4 = icmp ult i32 %3, 16
  %5 = and i1 %cmp38, %4
  %or.cond857 = or i1 %cmp, %5
  %or.cond50 = and i1 %cmp40, %or.cond857
  br i1 %or.cond50, label %cleanup, label %lor.lhs.false49

lor.lhs.false49:                                  ; preds = %lor.lhs.false37
  %cmp50 = icmp ne i32 %sub.i, 8
  %cmp52 = icmp ne i32 %call4, 12
  %6 = add i32 %sub.i, -27
  %7 = icmp ult i32 %6, -2
  %or.cond5159.not60 = and i1 %cmp50, %7
  %or.cond52.not = or i1 %or.cond5159.not60, %cmp52
  br label %cleanup

cleanup:                                          ; preds = %lor.lhs.false49, %entry, %lor.lhs.false, %lor.lhs.false27, %lor.lhs.false31, %lor.lhs.false37
  %retval.0 = phi i1 [ false, %lor.lhs.false37 ], [ false, %lor.lhs.false31 ], [ false, %lor.lhs.false27 ], [ false, %lor.lhs.false ], [ false, %entry ], [ %or.cond52.not, %lor.lhs.false49 ]
  ret i1 %retval.0
}